target datalayout = "e-m:e-p270:32:32-p271:32:32-p272:64:64-i64:64-i128:128-f80:128-n8:16:32:64-S128"
target triple = "x86_64-pc-linux-gnu"

%struct.gf_s = type { [8 x i64] }

; Function Attrs: inlinehint nounwind uwtable
define internal { i64, i64 } @widemul(i64 noundef %0, i64 noundef %1) #2 {
  %3 = alloca i128, align 16
  %4 = alloca i64, align 8
  %5 = alloca i64, align 8
  store i64 %0, ptr %4, align 8, !tbaa !12
  store i64 %1, ptr %5, align 8, !tbaa !12
  %6 = load i64, ptr %4, align 8, !tbaa !12
  %7 = zext i64 %6 to i128
  %8 = load i64, ptr %5, align 8, !tbaa !12
  %9 = zext i64 %8 to i128
  %10 = mul i128 %7, %9
  store i128 %10, ptr %3, align 16
  %11 = load { i64, i64 }, ptr %3, align 16
  ret { i64, i64 } %11
}

; Function Attrs: nounwind uwtable
define void @ossl_gf_mulw_unsigned(ptr noalias noundef %0, ptr noundef %1, i32 noundef %2) #0 {
  %4 = alloca ptr, align 8
  %5 = alloca ptr, align 8
  %6 = alloca i32, align 4
  %7 = alloca ptr, align 8
  %8 = alloca ptr, align 8
  %9 = alloca i128, align 16
  %10 = alloca i128, align 16
  %11 = alloca i64, align 8
  %12 = alloca i32, align 4
  %13 = alloca i128, align 16
  %14 = alloca i128, align 16
  store ptr %0, ptr %4, align 8, !tbaa !3
  store ptr %1, ptr %5, align 8, !tbaa !3
  store i32 %2, ptr %6, align 4, !tbaa !14
  call void @llvm.lifetime.start.p0(i64 8, ptr %7) #3
  %15 = load ptr, ptr %5, align 8, !tbaa !3
  %16 = getelementptr inbounds nuw %struct.gf_s, ptr %15, i32 0, i32 0
  %17 = getelementptr inbounds [8 x i64], ptr %16, i64 0, i64 0
  store ptr %17, ptr %7, align 8, !tbaa !8
  call void @llvm.lifetime.start.p0(i64 8, ptr %8) #3
  %18 = load ptr, ptr %4, align 8, !tbaa !3
  %19 = getelementptr inbounds nuw %struct.gf_s, ptr %18, i32 0, i32 0
  %20 = getelementptr inbounds [8 x i64], ptr %19, i64 0, i64 0
  store ptr %20, ptr %8, align 8, !tbaa !8
  call void @llvm.lifetime.start.p0(i64 16, ptr %9) #3
  store i128 0, ptr %9, align 16, !tbaa !10
  call void @llvm.lifetime.start.p0(i64 16, ptr %10) #3
  store i128 0, ptr %10, align 16, !tbaa !10
  call void @llvm.lifetime.start.p0(i64 8, ptr %11) #3
  store i64 72057594037927935, ptr %11, align 8, !tbaa !12
  call void @llvm.lifetime.start.p0(i64 4, ptr %12) #3
  store i32 0, ptr %12, align 4, !tbaa !14
  br label %21

21:                                               ; preds = %79, %3
  %22 = load i32, ptr %12, align 4, !tbaa !14
  %23 = icmp slt i32 %22, 4
  br i1 %23, label %24, label %82

24:                                               ; preds = %21
  %25 = load i32, ptr %6, align 4, !tbaa !14
  %26 = zext i32 %25 to i64
  %27 = load ptr, ptr %7, align 8, !tbaa !8
  %28 = load i32, ptr %12, align 4, !tbaa !14
  %29 = sext i32 %28 to i64
  %30 = getelementptr inbounds i64, ptr %27, i64 %29
  %31 = load i64, ptr %30, align 8, !tbaa !12
  %32 = call { i64, i64 } @widemul(i64 noundef %26, i64 noundef %31)
  %33 = getelementptr inbounds nuw { i64, i64 }, ptr %13, i32 0, i32 0
  %34 = extractvalue { i64, i64 } %32, 0
  store i64 %34, ptr %33, align 16
  %35 = getelementptr inbounds nuw { i64, i64 }, ptr %13, i32 0, i32 1
  %36 = extractvalue { i64, i64 } %32, 1
  store i64 %36, ptr %35, align 8
  %37 = load i128, ptr %13, align 16, !tbaa !10
  %38 = load i128, ptr %9, align 16, !tbaa !10
  %39 = add i128 %38, %37
  store i128 %39, ptr %9, align 16, !tbaa !10
  %40 = load i32, ptr %6, align 4, !tbaa !14
  %41 = zext i32 %40 to i64
  %42 = load ptr, ptr %7, align 8, !tbaa !8
  %43 = load i32, ptr %12, align 4, !tbaa !14
  %44 = add nsw i32 %43, 4
  %45 = sext i32 %44 to i64
  %46 = getelementptr inbounds i64, ptr %42, i64 %45
  %47 = load i64, ptr %46, align 8, !tbaa !12
  %48 = call { i64, i64 } @widemul(i64 noundef %41, i64 noundef %47)
  %49 = getelementptr inbounds nuw { i64, i64 }, ptr %14, i32 0, i32 0
  %50 = extractvalue { i64, i64 } %48, 0
  store i64 %50, ptr %49, align 16
  %51 = getelementptr inbounds nuw { i64, i64 }, ptr %14, i32 0, i32 1
  %52 = extractvalue { i64, i64 } %48, 1
  store i64 %52, ptr %51, align 8
  %53 = load i128, ptr %14, align 16, !tbaa !10
  %54 = load i128, ptr %10, align 16, !tbaa !10
  %55 = add i128 %54, %53
  store i128 %55, ptr %10, align 16, !tbaa !10
  %56 = load i128, ptr %9, align 16, !tbaa !10
  %57 = load i64, ptr %11, align 8, !tbaa !12
  %58 = zext i64 %57 to i128
  %59 = and i128 %56, %58
  %60 = trunc i128 %59 to i64
  %61 = load ptr, ptr %8, align 8, !tbaa !8
  %62 = load i32, ptr %12, align 4, !tbaa !14
  %63 = sext i32 %62 to i64
  %64 = getelementptr inbounds i64, ptr %61, i64 %63
  store i64 %60, ptr %64, align 8, !tbaa !12
  %65 = load i128, ptr %9, align 16, !tbaa !10
  %66 = lshr i128 %65, 56
  store i128 %66, ptr %9, align 16, !tbaa !10
  %67 = load i128, ptr %10, align 16, !tbaa !10
  %68 = load i64, ptr %11, align 8, !tbaa !12
  %69 = zext i64 %68 to i128
  %70 = and i128 %67, %69
  %71 = trunc i128 %70 to i64
  %72 = load ptr, ptr %8, align 8, !tbaa !8
  %73 = load i32, ptr %12, align 4, !tbaa !14
  %74 = add nsw i32 %73, 4
  %75 = sext i32 %74 to i64
  %76 = getelementptr inbounds i64, ptr %72, i64 %75
  store i64 %71, ptr %76, align 8, !tbaa !12
  %77 = load i128, ptr %10, align 16, !tbaa !10
  %78 = lshr i128 %77, 56
  store i128 %78, ptr %10, align 16, !tbaa !10
  br label %79

79:                                               ; preds = %24
  %80 = load i32, ptr %12, align 4, !tbaa !14
  %81 = add nsw i32 %80, 1
  store i32 %81, ptr %12, align 4, !tbaa !14
  br label %21, !llvm.loop !21

82:                                               ; preds = %21
  %83 = load i128, ptr %10, align 16, !tbaa !10
  %84 = load ptr, ptr %8, align 8, !tbaa !8
  %85 = getelementptr inbounds i64, ptr %84, i64 4
  %86 = load i64, ptr %85, align 8, !tbaa !12
  %87 = zext i64 %86 to i128
  %88 = add i128 %83, %87
  %89 = load i128, ptr %9, align 16, !tbaa !10
  %90 = add i128 %89, %88
  store i128 %90, ptr %9, align 16, !tbaa !10
  %91 = load i128, ptr %9, align 16, !tbaa !10
  %92 = load i64, ptr %11, align 8, !tbaa !12
  %93 = zext i64 %92 to i128
  %94 = and i128 %91, %93
  %95 = trunc i128 %94 to i64
  %96 = load ptr, ptr %8, align 8, !tbaa !8
  %97 = getelementptr inbounds i64, ptr %96, i64 4
  store i64 %95, ptr %97, align 8, !tbaa !12
  %98 = load i128, ptr %9, align 16, !tbaa !10
  %99 = lshr i128 %98, 56
  %100 = load ptr, ptr %8, align 8, !tbaa !8
  %101 = getelementptr inbounds i64, ptr %100, i64 5
  %102 = load i64, ptr %101, align 8, !tbaa !12
  %103 = zext i64 %102 to i128
  %104 = add i128 %103, %99
  %105 = trunc i128 %104 to i64
  store i64 %105, ptr %101, align 8, !tbaa !12
  %106 = load ptr, ptr %8, align 8, !tbaa !8
  %107 = getelementptr inbounds i64, ptr %106, i64 0
  %108 = load i64, ptr %107, align 8, !tbaa !12
  %109 = zext i64 %108 to i128
  %110 = load i128, ptr %10, align 16, !tbaa !10
  %111 = add i128 %110, %109
  store i128 %111, ptr %10, align 16, !tbaa !10
  %112 = load i128, ptr %10, align 16, !tbaa !10
  %113 = load i64, ptr %11, align 8, !tbaa !12
  %114 = zext i64 %113 to i128
  %115 = and i128 %112, %114
  %116 = trunc i128 %115 to i64
  %117 = load ptr, ptr %8, align 8, !tbaa !8
  %118 = getelementptr inbounds i64, ptr %117, i64 0
  store i64 %116, ptr %118, align 8, !tbaa !12
  %119 = load i128, ptr %10, align 16, !tbaa !10
  %120 = lshr i128 %119, 56
  %121 = load ptr, ptr %8, align 8, !tbaa !8
  %122 = getelementptr inbounds i64, ptr %121, i64 1
  %123 = load i64, ptr %122, align 8, !tbaa !12
  %124 = zext i64 %123 to i128
  %125 = add i128 %124, %120
  %126 = trunc i128 %125 to i64
  store i64 %126, ptr %122, align 8, !tbaa !12
  call void @llvm.lifetime.end.p0(i64 4, ptr %12) #3
  call void @llvm.lifetime.end.p0(i64 8, ptr %11) #3
  call void @llvm.lifetime.end.p0(i64 16, ptr %10) #3
  call void @llvm.lifetime.end.p0(i64 16, ptr %9) #3
  call void @llvm.lifetime.end.p0(i64 8, ptr %8) #3
  call void @llvm.lifetime.end.p0(i64 8, ptr %7) #3
  ret void
}