; Function Attrs: nofree norecurse nosync nounwind memory(argmem: readwrite) uwtable
define void @ossl_gf_mulw_unsigned(ptr noalias noundef captures(none) %0, ptr noundef readonly captures(none) %1, i32 noundef %2) local_unnamed_addr #0 {
  %4 = zext i32 %2 to i128
  br label %5

5:                                                ; preds = %3, %5
  %indvars.iv = phi i64 [ 0, %3 ], [ %indvars.iv.next, %5 ]
  %.047 = phi i128 [ 0, %3 ], [ %20, %5 ]
  %.03846 = phi i128 [ 0, %3 ], [ %24, %5 ]
  %6 = getelementptr inbounds nuw i64, ptr %1, i64 %indvars.iv
  %7 = load i64, ptr %6, align 8, !tbaa !3
  %8 = zext i64 %7 to i128
  %9 = mul nuw nsw i128 %8, %4
  %10 = add nuw nsw i128 %9, %.047
  %11 = or disjoint i64 %indvars.iv, 4
  %12 = getelementptr inbounds nuw i64, ptr %1, i64 %11
  %13 = load i64, ptr %12, align 8, !tbaa !3
  %14 = zext i64 %13 to i128
  %15 = mul nuw nsw i128 %14, %4
  %16 = add nuw nsw i128 %15, %.03846
  %17 = trunc i128 %10 to i64
  %18 = and i64 %17, 72057594037927935
  %19 = getelementptr inbounds nuw i64, ptr %0, i64 %indvars.iv
  store i64 %18, ptr %19, align 8, !tbaa !3
  %20 = lshr i128 %10, 56
  %21 = trunc i128 %16 to i64
  %22 = and i64 %21, 72057594037927935
  %23 = getelementptr inbounds nuw i64, ptr %0, i64 %11
  store i64 %22, ptr %23, align 8, !tbaa !3
  %24 = lshr i128 %16, 56
  %indvars.iv.next = add nuw nsw i64 %indvars.iv, 1
  %exitcond.not = icmp eq i64 %indvars.iv.next, 4
  br i1 %exitcond.not, label %25, label %5, !llvm.loop !12

25:                                               ; preds = %5
  %26 = getelementptr inbounds nuw i8, ptr %0, i64 32
  %27 = load i64, ptr %26, align 8, !tbaa !3
  %28 = zext i64 %27 to i128
  %29 = add nuw nsw i128 %20, %24
  %30 = add nuw nsw i128 %29, %28
  %31 = trunc i128 %30 to i64
  %32 = and i64 %31, 72057594037927935
  store i64 %32, ptr %26, align 8, !tbaa !3
  %33 = lshr i128 %30, 56
  %34 = getelementptr inbounds nuw i8, ptr %0, i64 40
  %35 = load i64, ptr %34, align 8, !tbaa !3
  %36 = trunc nuw nsw i128 %33 to i64
  %37 = add i64 %35, %36
  store i64 %37, ptr %34, align 8, !tbaa !3
  %38 = load i64, ptr %0, align 8, !tbaa !3
  %39 = zext i64 %38 to i128
  %40 = add nuw nsw i128 %24, %39
  %41 = trunc i128 %40 to i64
  %42 = and i64 %41, 72057594037927935
  store i64 %42, ptr %0, align 8, !tbaa !3
  %43 = lshr i128 %40, 56
  %44 = getelementptr inbounds nuw i8, ptr %0, i64 8
  %45 = load i64, ptr %44, align 8, !tbaa !3
  %46 = trunc nuw nsw i128 %43 to i64
  %47 = add i64 %45, %46
  store i64 %47, ptr %44, align 8, !tbaa !3
  ret void
}